target datalayout = "e-m:e-p270:32:32-p271:32:32-p272:64:64-i64:64-i128:128-f80:128-n8:16:32:64-S128"
target triple = "x86_64-pc-linux-gnu"

%struct.AudioEchoContext = type { ptr, float, float, ptr, ptr, ptr, ptr, i32, i32, ptr, i32, i32, ptr, i32, i64, ptr }

; Function Attrs: alwaysinline nounwind willreturn memory(none) uwtable
define internal double @av_clipd_c(double noundef %0, double noundef %1, double noundef %2) #5 {
  %4 = alloca double, align 8
  %5 = alloca double, align 8
  %6 = alloca double, align 8
  store double %0, ptr %4, align 8, !tbaa !67
  store double %1, ptr %5, align 8, !tbaa !67
  store double %2, ptr %6, align 8, !tbaa !67
  %7 = load double, ptr %4, align 8, !tbaa !67
  %8 = load double, ptr %5, align 8, !tbaa !67
  %9 = fcmp nsz ogt double %7, %8
  br i1 %9, label %10, label %12

10:                                               ; preds = %3
  %11 = load double, ptr %4, align 8, !tbaa !67
  br label %14

12:                                               ; preds = %3
  %13 = load double, ptr %5, align 8, !tbaa !67
  br label %14

14:                                               ; preds = %12, %10
  %15 = phi nsz double [ %11, %10 ], [ %13, %12 ]
  %16 = load double, ptr %6, align 8, !tbaa !67
  %17 = fcmp nsz ogt double %15, %16
  br i1 %17, label %18, label %20

18:                                               ; preds = %14
  %19 = load double, ptr %6, align 8, !tbaa !67
  br label %30

20:                                               ; preds = %14
  %21 = load double, ptr %4, align 8, !tbaa !67
  %22 = load double, ptr %5, align 8, !tbaa !67
  %23 = fcmp nsz ogt double %21, %22
  br i1 %23, label %24, label %26

24:                                               ; preds = %20
  %25 = load double, ptr %4, align 8, !tbaa !67
  br label %28

26:                                               ; preds = %20
  %27 = load double, ptr %5, align 8, !tbaa !67
  br label %28

28:                                               ; preds = %26, %24
  %29 = phi nsz double [ %25, %24 ], [ %27, %26 ]
  br label %30

30:                                               ; preds = %28, %18
  %31 = phi nsz double [ %19, %18 ], [ %29, %28 ]
  ret double %31
}

; Function Attrs: nounwind uwtable
define internal void @echo_samples_s16p(ptr noundef %0, ptr noundef %1, ptr noundef %2, ptr noundef %3, i32 noundef %4, i32 noundef %5) #1 {
  %7 = alloca ptr, align 8
  %8 = alloca ptr, align 8
  %9 = alloca ptr, align 8
  %10 = alloca ptr, align 8
  %11 = alloca i32, align 4
  %12 = alloca i32, align 4
  %13 = alloca double, align 8
  %14 = alloca double, align 8
  %15 = alloca i32, align 4
  %16 = alloca i32, align 4
  %17 = alloca i32, align 4
  %18 = alloca i32, align 4
  %19 = alloca i32, align 4
  %20 = alloca i32, align 4
  %21 = alloca ptr, align 8
  %22 = alloca ptr, align 8
  %23 = alloca ptr, align 8
  %24 = alloca double, align 8
  %25 = alloca double, align 8
  %26 = alloca i32, align 4
  store ptr %0, ptr %7, align 8, !tbaa !22
  store ptr %1, ptr %8, align 8, !tbaa !66
  store ptr %2, ptr %9, align 8, !tbaa !66
  store ptr %3, ptr %10, align 8, !tbaa !66
  store i32 %4, ptr %11, align 4, !tbaa !33
  store i32 %5, ptr %12, align 4, !tbaa !33
  call void @llvm.lifetime.start.p0(i64 8, ptr %13) #8
  %27 = load ptr, ptr %7, align 8, !tbaa !22
  %28 = getelementptr inbounds nuw %struct.AudioEchoContext, ptr %27, i32 0, i32 2
  %29 = load float, ptr %28, align 4, !tbaa !62
  %30 = fpext nsz float %29 to double
  store double %30, ptr %13, align 8, !tbaa !67
  call void @llvm.lifetime.start.p0(i64 8, ptr %14) #8
  %31 = load ptr, ptr %7, align 8, !tbaa !22
  %32 = getelementptr inbounds nuw %struct.AudioEchoContext, ptr %31, i32 0, i32 1
  %33 = load float, ptr %32, align 8, !tbaa !61
  %34 = fpext nsz float %33 to double
  store double %34, ptr %14, align 8, !tbaa !67
  call void @llvm.lifetime.start.p0(i64 4, ptr %15) #8
  %35 = load ptr, ptr %7, align 8, !tbaa !22
  %36 = getelementptr inbounds nuw %struct.AudioEchoContext, ptr %35, i32 0, i32 7
  %37 = load i32, ptr %36, align 8, !tbaa !35
  store i32 %37, ptr %15, align 4, !tbaa !33
  call void @llvm.lifetime.start.p0(i64 4, ptr %16) #8
  %38 = load ptr, ptr %7, align 8, !tbaa !22
  %39 = getelementptr inbounds nuw %struct.AudioEchoContext, ptr %38, i32 0, i32 10
  %40 = load i32, ptr %39, align 8, !tbaa !59
  store i32 %40, ptr %16, align 4, !tbaa !33
  call void @llvm.lifetime.start.p0(i64 4, ptr %17) #8
  call void @llvm.lifetime.start.p0(i64 4, ptr %18) #8
  call void @llvm.lifetime.start.p0(i64 4, ptr %19) #8
  call void @llvm.lifetime.start.p0(i64 4, ptr %20) #8
  %41 = load i32, ptr %20, align 4, !tbaa !33
  store i32 %41, ptr %20, align 4, !tbaa !33
  store i32 0, ptr %19, align 4, !tbaa !33
  br label %42

42:                                               ; preds = %160, %6
  %43 = load i32, ptr %19, align 4, !tbaa !33
  %44 = load i32, ptr %12, align 4, !tbaa !33
  %45 = icmp slt i32 %43, %44
  br i1 %45, label %46, label %163

46:                                               ; preds = %42
  call void @llvm.lifetime.start.p0(i64 8, ptr %21) #8
  %47 = load ptr, ptr %9, align 8, !tbaa !66
  %48 = load i32, ptr %19, align 4, !tbaa !33
  %49 = sext i32 %48 to i64
  %50 = getelementptr inbounds ptr, ptr %47, i64 %49
  %51 = load ptr, ptr %50, align 8, !tbaa !69
  store ptr %51, ptr %21, align 8, !tbaa !79
  call void @llvm.lifetime.start.p0(i64 8, ptr %22) #8
  %52 = load ptr, ptr %10, align 8, !tbaa !66
  %53 = load i32, ptr %19, align 4, !tbaa !33
  %54 = sext i32 %53 to i64
  %55 = getelementptr inbounds ptr, ptr %52, i64 %54
  %56 = load ptr, ptr %55, align 8, !tbaa !69
  store ptr %56, ptr %22, align 8, !tbaa !79
  call void @llvm.lifetime.start.p0(i64 8, ptr %23) #8
  %57 = load ptr, ptr %8, align 8, !tbaa !66
  %58 = load i32, ptr %19, align 4, !tbaa !33
  %59 = sext i32 %58 to i64
  %60 = getelementptr inbounds ptr, ptr %57, i64 %59
  %61 = load ptr, ptr %60, align 8, !tbaa !69
  store ptr %61, ptr %23, align 8, !tbaa !79
  %62 = load ptr, ptr %7, align 8, !tbaa !22
  %63 = getelementptr inbounds nuw %struct.AudioEchoContext, ptr %62, i32 0, i32 8
  %64 = load i32, ptr %63, align 4, !tbaa !71
  store i32 %64, ptr %20, align 4, !tbaa !33
  store i32 0, ptr %17, align 4, !tbaa !33
  br label %65

65:                                               ; preds = %152, %46
  %66 = load i32, ptr %17, align 4, !tbaa !33
  %67 = load i32, ptr %11, align 4, !tbaa !33
  %68 = icmp slt i32 %66, %67
  br i1 %68, label %69, label %159

69:                                               ; preds = %65
  call void @llvm.lifetime.start.p0(i64 8, ptr %24) #8
  call void @llvm.lifetime.start.p0(i64 8, ptr %25) #8
  %70 = load ptr, ptr %21, align 8, !tbaa !79
  %71 = load i16, ptr %70, align 2, !tbaa !81
  %72 = sitofp i16 %71 to double
  store double %72, ptr %25, align 8, !tbaa !67
  %73 = load double, ptr %25, align 8, !tbaa !67
  %74 = load double, ptr %14, align 8, !tbaa !67
  %75 = fmul nsz double %73, %74
  store double %75, ptr %24, align 8, !tbaa !67
  store i32 0, ptr %18, align 4, !tbaa !33
  br label %76

76:                                               ; preds = %121, %69
  %77 = load i32, ptr %18, align 4, !tbaa !33
  %78 = load i32, ptr %15, align 4, !tbaa !33
  %79 = icmp slt i32 %77, %78
  br i1 %79, label %80, label %124

80:                                               ; preds = %76
  call void @llvm.lifetime.start.p0(i64 4, ptr %26) #8
  %81 = load i32, ptr %20, align 4, !tbaa !33
  %82 = load i32, ptr %16, align 4, !tbaa !33
  %83 = add nsw i32 %81, %82
  %84 = load ptr, ptr %7, align 8, !tbaa !22
  %85 = getelementptr inbounds nuw %struct.AudioEchoContext, ptr %84, i32 0, i32 12
  %86 = load ptr, ptr %85, align 8, !tbaa !36
  %87 = load i32, ptr %18, align 4, !tbaa !33
  %88 = sext i32 %87 to i64
  %89 = getelementptr inbounds i32, ptr %86, i64 %88
  %90 = load i32, ptr %89, align 4, !tbaa !33
  %91 = sub nsw i32 %83, %90
  store i32 %91, ptr %26, align 4, !tbaa !33
  %92 = load i32, ptr %26, align 4, !tbaa !33
  %93 = load i32, ptr %16, align 4, !tbaa !33
  %94 = icmp sge i32 %92, %93
  br i1 %94, label %95, label %99

95:                                               ; preds = %80
  %96 = load i32, ptr %26, align 4, !tbaa !33
  %97 = load i32, ptr %16, align 4, !tbaa !33
  %98 = sub nsw i32 %96, %97
  br label %101

99:                                               ; preds = %80
  %100 = load i32, ptr %26, align 4, !tbaa !33
  br label %101

101:                                              ; preds = %99, %95
  %102 = phi i32 [ %98, %95 ], [ %100, %99 ]
  store i32 %102, ptr %26, align 4, !tbaa !33
  %103 = load ptr, ptr %23, align 8, !tbaa !79
  %104 = load i32, ptr %26, align 4, !tbaa !33
  %105 = sext i32 %104 to i64
  %106 = getelementptr inbounds i16, ptr %103, i64 %105
  %107 = load i16, ptr %106, align 2, !tbaa !81
  %108 = sext i16 %107 to i32
  %109 = sitofp i32 %108 to float
  %110 = load ptr, ptr %7, align 8, !tbaa !22
  %111 = getelementptr inbounds nuw %struct.AudioEchoContext, ptr %110, i32 0, i32 6
  %112 = load ptr, ptr %111, align 8, !tbaa !34
  %113 = load i32, ptr %18, align 4, !tbaa !33
  %114 = sext i32 %113 to i64
  %115 = getelementptr inbounds float, ptr %112, i64 %114
  %116 = load float, ptr %115, align 4, !tbaa !37
  %117 = fmul nsz float %109, %116
  %118 = fpext nsz float %117 to double
  %119 = load double, ptr %24, align 8, !tbaa !67
  %120 = fadd nsz double %119, %118
  store double %120, ptr %24, align 8, !tbaa !67
  call void @llvm.lifetime.end.p0(i64 4, ptr %26) #8
  br label %121

121:                                              ; preds = %101
  %122 = load i32, ptr %18, align 4, !tbaa !33
  %123 = add nsw i32 %122, 1
  store i32 %123, ptr %18, align 4, !tbaa !33
  br label %76, !llvm.loop !83

124:                                              ; preds = %76
  %125 = load double, ptr %13, align 8, !tbaa !67
  %126 = load double, ptr %24, align 8, !tbaa !67
  %127 = fmul nsz double %126, %125
  store double %127, ptr %24, align 8, !tbaa !67
  %128 = load double, ptr %24, align 8, !tbaa !67
  %129 = call nsz double @av_clipd_c(double noundef %128, double noundef -3.276800e+04, double noundef 3.276700e+04) #9
  %130 = fptosi double %129 to i16
  %131 = load ptr, ptr %22, align 8, !tbaa !79
  store i16 %130, ptr %131, align 2, !tbaa !81
  %132 = load double, ptr %25, align 8, !tbaa !67
  %133 = fptosi double %132 to i16
  %134 = load ptr, ptr %23, align 8, !tbaa !79
  %135 = load i32, ptr %20, align 4, !tbaa !33
  %136 = sext i32 %135 to i64
  %137 = getelementptr inbounds i16, ptr %134, i64 %136
  store i16 %133, ptr %137, align 2, !tbaa !81
  %138 = load i32, ptr %20, align 4, !tbaa !33
  %139 = add nsw i32 %138, 1
  %140 = load i32, ptr %16, align 4, !tbaa !33
  %141 = icmp sge i32 %139, %140
  br i1 %141, label %142, label %147

142:                                              ; preds = %124
  %143 = load i32, ptr %20, align 4, !tbaa !33
  %144 = add nsw i32 %143, 1
  %145 = load i32, ptr %16, align 4, !tbaa !33
  %146 = sub nsw i32 %144, %145
  br label %150

147:                                              ; preds = %124
  %148 = load i32, ptr %20, align 4, !tbaa !33
  %149 = add nsw i32 %148, 1
  br label %150

150:                                              ; preds = %147, %142
  %151 = phi i32 [ %146, %142 ], [ %149, %147 ]
  store i32 %151, ptr %20, align 4, !tbaa !33
  call void @llvm.lifetime.end.p0(i64 8, ptr %25) #8
  call void @llvm.lifetime.end.p0(i64 8, ptr %24) #8
  br label %152

152:                                              ; preds = %150
  %153 = load i32, ptr %17, align 4, !tbaa !33
  %154 = add nsw i32 %153, 1
  store i32 %154, ptr %17, align 4, !tbaa !33
  %155 = load ptr, ptr %21, align 8, !tbaa !79
  %156 = getelementptr inbounds nuw i16, ptr %155, i32 1
  store ptr %156, ptr %21, align 8, !tbaa !79
  %157 = load ptr, ptr %22, align 8, !tbaa !79
  %158 = getelementptr inbounds nuw i16, ptr %157, i32 1
  store ptr %158, ptr %22, align 8, !tbaa !79
  br label %65, !llvm.loop !84

159:                                              ; preds = %65
  call void @llvm.lifetime.end.p0(i64 8, ptr %23) #8
  call void @llvm.lifetime.end.p0(i64 8, ptr %22) #8
  call void @llvm.lifetime.end.p0(i64 8, ptr %21) #8
  br label %160

160:                                              ; preds = %159
  %161 = load i32, ptr %19, align 4, !tbaa !33
  %162 = add nsw i32 %161, 1
  store i32 %162, ptr %19, align 4, !tbaa !33
  br label %42, !llvm.loop !85

163:                                              ; preds = %42
  %164 = load i32, ptr %20, align 4, !tbaa !33
  %165 = load ptr, ptr %7, align 8, !tbaa !22
  %166 = getelementptr inbounds nuw %struct.AudioEchoContext, ptr %165, i32 0, i32 8
  store i32 %164, ptr %166, align 4, !tbaa !71
  call void @llvm.lifetime.end.p0(i64 4, ptr %20) #8
  call void @llvm.lifetime.end.p0(i64 4, ptr %19) #8
  call void @llvm.lifetime.end.p0(i64 4, ptr %18) #8
  call void @llvm.lifetime.end.p0(i64 4, ptr %17) #8
  call void @llvm.lifetime.end.p0(i64 4, ptr %16) #8
  call void @llvm.lifetime.end.p0(i64 4, ptr %15) #8
  call void @llvm.lifetime.end.p0(i64 8, ptr %14) #8
  call void @llvm.lifetime.end.p0(i64 8, ptr %13) #8
  ret void
}