; Function Attrs: nofree norecurse nosync nounwind memory(readwrite, inaccessiblemem: none) uwtable
define internal void @echo_samples_s16p(ptr noundef captures(none) %0, ptr noundef readonly captures(none) %1, ptr noundef readonly captures(none) %2, ptr noundef readonly captures(none) %3, i32 noundef %4, i32 noundef %5) #4 {
  %7 = getelementptr inbounds nuw i8, ptr %0, i64 12
  %8 = load float, ptr %7, align 4, !tbaa !71
  %9 = fpext nsz float %8 to double
  %10 = getelementptr inbounds nuw i8, ptr %0, i64 8
  %11 = load float, ptr %10, align 8, !tbaa !70
  %12 = fpext nsz float %11 to double
  %13 = getelementptr inbounds nuw i8, ptr %0, i64 48
  %14 = load i32, ptr %13, align 8, !tbaa !34
  %15 = getelementptr inbounds nuw i8, ptr %0, i64 64
  %16 = load i32, ptr %15, align 8, !tbaa !68
  %17 = icmp sgt i32 %5, 0
  br i1 %17, label %.lr.ph, label %._crit_edge

.lr.ph:                                           ; preds = %6
  %18 = getelementptr inbounds nuw i8, ptr %0, i64 52
  %19 = load i32, ptr %18, align 4, !tbaa !73
  %20 = icmp sgt i32 %4, 0
  %21 = getelementptr inbounds nuw i8, ptr %0, i64 72
  %22 = getelementptr inbounds nuw i8, ptr %0, i64 40
  br i1 %20, label %.lr.ph.split.us, label %._crit_edge

.lr.ph.split.us:                                  ; preds = %.lr.ph
  %23 = icmp sgt i32 %14, 0
  br i1 %23, label %.lr.ph.split.us.split.us, label %.lr.ph70.us.preheader

.lr.ph70.us.preheader:                            ; preds = %.lr.ph.split.us
  %wide.trip.count = zext nneg i32 %5 to i64
  br label %.lr.ph70.us

.lr.ph.split.us.split.us:                         ; preds = %.lr.ph.split.us
  %24 = load ptr, ptr %21, align 8, !tbaa !35
  %25 = load ptr, ptr %22, align 8, !tbaa !32
  %wide.trip.count100 = zext nneg i32 %5 to i64
  %wide.trip.count94 = zext nneg i32 %14 to i64
  br label %.lr.ph70.us.us

.lr.ph70.us.us:                                   ; preds = %._crit_edge71.split.us.us.us, %.lr.ph.split.us.split.us
  %indvars.iv97 = phi i64 [ %indvars.iv.next98, %._crit_edge71.split.us.us.us ], [ 0, %.lr.ph.split.us.split.us ]
  %26 = getelementptr inbounds nuw ptr, ptr %2, i64 %indvars.iv97
  %27 = load ptr, ptr %26, align 8, !tbaa !74
  %28 = getelementptr inbounds nuw ptr, ptr %3, i64 %indvars.iv97
  %29 = load ptr, ptr %28, align 8, !tbaa !74
  %30 = getelementptr inbounds nuw ptr, ptr %1, i64 %indvars.iv97
  %31 = load ptr, ptr %30, align 8, !tbaa !74
  br label %.lr.ph.us.us.us

.lr.ph.us.us.us:                                  ; preds = %._crit_edge.us.us.us, %.lr.ph70.us.us
  %.068.us.us.us = phi i32 [ 0, %.lr.ph70.us.us ], [ %61, %._crit_edge.us.us.us ]
  %.05667.us.us.us = phi ptr [ %29, %.lr.ph70.us.us ], [ %63, %._crit_edge.us.us.us ]
  %.05766.us.us.us = phi ptr [ %27, %.lr.ph70.us.us ], [ %62, %._crit_edge.us.us.us ]
  %.165.us.us.us = phi i32 [ %19, %.lr.ph70.us.us ], [ %60, %._crit_edge.us.us.us ]
  %32 = load i16, ptr %.05766.us.us.us, align 2, !tbaa !83
  %33 = sitofp i16 %32 to double
  %34 = fmul nsz double %12, %33
  %35 = add nsw i32 %.165.us.us.us, %16
  br label %36

36:                                               ; preds = %36, %.lr.ph.us.us.us
  %indvars.iv91 = phi i64 [ %indvars.iv.next92, %36 ], [ 0, %.lr.ph.us.us.us ]
  %.05463.us.us.us = phi double [ %50, %36 ], [ %34, %.lr.ph.us.us.us ]
  %37 = getelementptr inbounds nuw i32, ptr %24, i64 %indvars.iv91
  %38 = load i32, ptr %37, align 4, !tbaa !33
  %39 = sub i32 %35, %38
  %.not62.us.us.us = icmp slt i32 %39, %16
  %40 = select i1 %.not62.us.us.us, i32 0, i32 %16
  %41 = sub nsw i32 %39, %40
  %42 = sext i32 %41 to i64
  %43 = getelementptr inbounds i16, ptr %31, i64 %42
  %44 = load i16, ptr %43, align 2, !tbaa !83
  %45 = sitofp i16 %44 to float
  %46 = getelementptr inbounds nuw float, ptr %25, i64 %indvars.iv91
  %47 = load float, ptr %46, align 4, !tbaa !36
  %48 = fmul nsz float %47, %45
  %49 = fpext nsz float %48 to double
  %50 = fadd nsz double %.05463.us.us.us, %49
  %indvars.iv.next92 = add nuw nsw i64 %indvars.iv91, 1
  %exitcond95.not = icmp eq i64 %indvars.iv.next92, %wide.trip.count94
  br i1 %exitcond95.not, label %._crit_edge.us.us.us, label %36, !llvm.loop !85

._crit_edge.us.us.us:                             ; preds = %36
  %51 = fmul nsz double %50, %9
  %52 = fcmp nsz ogt double %51, -3.276800e+04
  %53 = select nsz i1 %52, double %51, double -3.276800e+04
  %54 = fcmp nsz ogt double %53, 3.276700e+04
  %..i.us.us.us = select nsz i1 %54, double 3.276700e+04, double %53
  %55 = fptosi double %..i.us.us.us to i16
  store i16 %55, ptr %.05667.us.us.us, align 2, !tbaa !83
  %56 = sext i32 %.165.us.us.us to i64
  %57 = getelementptr inbounds i16, ptr %31, i64 %56
  store i16 %32, ptr %57, align 2, !tbaa !83
  %58 = add nsw i32 %.165.us.us.us, 1
  %.not.us.us.us = icmp slt i32 %58, %16
  %59 = select i1 %.not.us.us.us, i32 0, i32 %16
  %60 = sub nsw i32 %58, %59
  %61 = add nuw nsw i32 %.068.us.us.us, 1
  %62 = getelementptr inbounds nuw i8, ptr %.05766.us.us.us, i64 2
  %63 = getelementptr inbounds nuw i8, ptr %.05667.us.us.us, i64 2
  %exitcond96.not = icmp eq i32 %61, %4
  br i1 %exitcond96.not, label %._crit_edge71.split.us.us.us, label %.lr.ph.us.us.us, !llvm.loop !86

._crit_edge71.split.us.us.us:                     ; preds = %._crit_edge.us.us.us
  %indvars.iv.next98 = add nuw nsw i64 %indvars.iv97, 1
  %exitcond101.not = icmp eq i64 %indvars.iv.next98, %wide.trip.count100
  br i1 %exitcond101.not, label %._crit_edge, label %.lr.ph70.us.us, !llvm.loop !87

.lr.ph70.us:                                      ; preds = %.lr.ph70.us.preheader, %._crit_edge71.split.us80
  %indvars.iv = phi i64 [ 0, %.lr.ph70.us.preheader ], [ %indvars.iv.next, %._crit_edge71.split.us80 ]
  %64 = getelementptr inbounds nuw ptr, ptr %2, i64 %indvars.iv
  %65 = load ptr, ptr %64, align 8, !tbaa !74
  %66 = getelementptr inbounds nuw ptr, ptr %3, i64 %indvars.iv
  %67 = load ptr, ptr %66, align 8, !tbaa !74
  %68 = getelementptr inbounds nuw ptr, ptr %1, i64 %indvars.iv
  %69 = load ptr, ptr %68, align 8, !tbaa !74
  br label %70

70:                                               ; preds = %.lr.ph70.us, %70
  %.068.us74 = phi i32 [ 0, %.lr.ph70.us ], [ %84, %70 ]
  %.05667.us75 = phi ptr [ %67, %.lr.ph70.us ], [ %86, %70 ]
  %.05766.us76 = phi ptr [ %65, %.lr.ph70.us ], [ %85, %70 ]
  %.165.us77 = phi i32 [ %19, %.lr.ph70.us ], [ %83, %70 ]
  %71 = load i16, ptr %.05766.us76, align 2, !tbaa !83
  %72 = sitofp i16 %71 to double
  %73 = fmul nsz double %12, %72
  %74 = fmul nsz double %73, %9
  %75 = fcmp nsz ogt double %74, -3.276800e+04
  %76 = select nsz i1 %75, double %74, double -3.276800e+04
  %77 = fcmp nsz ogt double %76, 3.276700e+04
  %..i.us78 = select nsz i1 %77, double 3.276700e+04, double %76
  %78 = fptosi double %..i.us78 to i16
  store i16 %78, ptr %.05667.us75, align 2, !tbaa !83
  %79 = sext i32 %.165.us77 to i64
  %80 = getelementptr inbounds i16, ptr %69, i64 %79
  store i16 %71, ptr %80, align 2, !tbaa !83
  %81 = add nsw i32 %.165.us77, 1
  %.not.us79 = icmp slt i32 %81, %16
  %82 = select i1 %.not.us79, i32 0, i32 %16
  %83 = sub nsw i32 %81, %82
  %84 = add nuw nsw i32 %.068.us74, 1
  %85 = getelementptr inbounds nuw i8, ptr %.05766.us76, i64 2
  %86 = getelementptr inbounds nuw i8, ptr %.05667.us75, i64 2
  %exitcond.not = icmp eq i32 %84, %4
  br i1 %exitcond.not, label %._crit_edge71.split.us80, label %70, !llvm.loop !86

._crit_edge71.split.us80:                         ; preds = %70
  %indvars.iv.next = add nuw nsw i64 %indvars.iv, 1
  %exitcond90.not = icmp eq i64 %indvars.iv.next, %wide.trip.count
  br i1 %exitcond90.not, label %._crit_edge, label %.lr.ph70.us, !llvm.loop !87

._crit_edge:                                      ; preds = %._crit_edge71.split.us80, %._crit_edge71.split.us.us.us, %.lr.ph, %6
  %.058.lcssa = phi i32 [ undef, %6 ], [ %19, %.lr.ph ], [ %60, %._crit_edge71.split.us.us.us ], [ %83, %._crit_edge71.split.us80 ]
  %87 = getelementptr inbounds nuw i8, ptr %0, i64 52
  store i32 %.058.lcssa, ptr %87, align 4, !tbaa !73
  ret void
}